; Function Attrs: mustprogress nounwind uwtable
define dso_local void @_ZN4llvm23AArch64MCAsmInfoGNUCOFFC2Ev(ptr noundef nonnull align 8 dereferenceable(484) %0) unnamed_addr #0 align 2 {
  tail call void @_ZN4llvm16MCAsmInfoGNUCOFFC2Ev(ptr noundef nonnull align 8 dereferenceable(484) %0) #12
  store ptr getelementptr inbounds inrange(-16, 104) (i8, ptr @_ZTVN4llvm23AArch64MCAsmInfoGNUCOFFE, i64 16), ptr %0, align 8
  %2 = getelementptr inbounds nuw i8, ptr %0, i64 88
  store ptr @.str.10, ptr %2, align 8
  %.sroa.24.0..sroa_idx = getelementptr inbounds i8, ptr %0, i64 96
  store i64 2, ptr %.sroa.24.0..sroa_idx, align 8
  %3 = getelementptr inbounds nuw i8, ptr %0, i64 104
  store ptr @.str.10, ptr %3, align 8
  %.sroa.22.0..sroa_idx = getelementptr inbounds i8, ptr %0, i64 112
  store i64 2, ptr %.sroa.22.0..sroa_idx, align 8
  %4 = getelementptr inbounds nuw i8, ptr %0, i64 256
  store ptr @.str.12, ptr %4, align 8
  %5 = getelementptr inbounds nuw i8, ptr %0, i64 264
  store ptr @.str.13, ptr %5, align 8
  %6 = getelementptr inbounds nuw i8, ptr %0, i64 272
  store ptr @.str.14, ptr %6, align 8
  %7 = getelementptr inbounds nuw i8, ptr %0, i64 339
  store i8 0, ptr %7, align 1
  %8 = getelementptr inbounds nuw i8, ptr %0, i64 408
  store i8 1, ptr %8, align 8
  %9 = getelementptr inbounds nuw i8, ptr %0, i64 8
  store i32 8, ptr %9, align 8
  %10 = getelementptr inbounds nuw i8, ptr %0, i64 48
  store ptr @.str.9, ptr %10, align 8
  %.sroa.2.0..sroa_idx = getelementptr inbounds i8, ptr %0, i64 56
  store i64 2, ptr %.sroa.2.0..sroa_idx, align 8
  %11 = getelementptr inbounds nuw i8, ptr %0, i64 412
  store i32 4, ptr %11, align 4
  %12 = getelementptr inbounds nuw i8, ptr %0, i64 420
  store i32 5, ptr %12, align 4
  ret void
}